; ModuleID = 'source-C-CXX/14/2337.cpp'
source_filename = "source-C-CXX/14/2337.cpp"
target datalayout = "e-m:e-p270:32:32-p271:32:32-p272:64:64-i64:64-f80:128-n8:16:32:64-S128"
target triple = "x86_64-pc-linux-gnu"

%"class.std::ios_base::Init" = type { i8 }
%"class.std::basic_istream" = type { i32 (...)**, i64, %"class.std::basic_ios" }
%"class.std::basic_ios" = type { %"class.std::ios_base", %"class.std::basic_ostream"*, i8, i8, %"class.std::basic_streambuf"*, %"class.std::ctype"*, %"class.std::num_put"*, %"class.std::num_get"* }
%"class.std::ios_base" = type { i32 (...)**, i64, i64, i32, i32, i32, %"struct.std::ios_base::_Callback_list"*, %"struct.std::ios_base::_Words", [8 x %"struct.std::ios_base::_Words"], i32, %"struct.std::ios_base::_Words"*, %"class.std::locale" }
%"struct.std::ios_base::_Callback_list" = type { %"struct.std::ios_base::_Callback_list"*, void (i32, %"class.std::ios_base"*, i32)*, i32, i32 }
%"struct.std::ios_base::_Words" = type { i8*, i64 }
%"class.std::locale" = type { %"class.std::locale::_Impl"* }
%"class.std::locale::_Impl" = type { i32, %"class.std::locale::facet"**, i64, %"class.std::locale::facet"**, i8** }
%"class.std::locale::facet" = type <{ i32 (...)**, i32, [4 x i8] }>
%"class.std::basic_ostream" = type { i32 (...)**, %"class.std::basic_ios" }
%"class.std::basic_streambuf" = type { i32 (...)**, i8*, i8*, i8*, i8*, i8*, i8*, %"class.std::locale" }
%"class.std::ctype" = type <{ %"class.std::locale::facet.base", [4 x i8], %struct.__locale_struct*, i8, [7 x i8], i32*, i32*, i16*, i8, [256 x i8], [256 x i8], i8, [6 x i8] }>
%"class.std::locale::facet.base" = type <{ i32 (...)**, i32 }>
%struct.__locale_struct = type { [13 x %struct.__locale_data*], i16*, i32*, i32*, [13 x i8*] }
%struct.__locale_data = type opaque
%"class.std::num_put" = type { %"class.std::locale::facet.base", [4 x i8] }
%"class.std::num_get" = type { %"class.std::locale::facet.base", [4 x i8] }

@_ZStL8__ioinit = internal global %"class.std::ios_base::Init" zeroinitializer, align 1
@__dso_handle = external hidden global i8
@_ZSt3cin = external global %"class.std::basic_istream", align 8
@_ZSt4cout = external global %"class.std::basic_ostream", align 8
@llvm.global_ctors = appending global [1 x { i32, void ()*, i8* }] [{ i32, void ()*, i8* } { i32 65535, void ()* @_GLOBAL__sub_I_2337.cpp, i8* null }]

declare void @_ZNSt8ios_base4InitC1Ev(%"class.std::ios_base::Init"* nonnull align 1 dereferenceable(1)) unnamed_addr #0

; Function Attrs: nounwind
declare void @_ZNSt8ios_base4InitD1Ev(%"class.std::ios_base::Init"* nonnull align 1 dereferenceable(1)) unnamed_addr #1

; Function Attrs: nofree nounwind
declare i32 @__cxa_atexit(void (i8*)*, i8*, i8*) local_unnamed_addr #2

; Function Attrs: mustprogress norecurse sspstrong uwtable
define dso_local i32 @main() local_unnamed_addr #3 {
  %1 = alloca i32, align 4
  %2 = alloca [100 x [100 x i32]], align 16
  %3 = bitcast i32* %1 to i8*
  call void @llvm.lifetime.start.p0i8(i64 4, i8* nonnull %3) #7
  %4 = bitcast [100 x [100 x i32]]* %2 to i8*
  call void @llvm.lifetime.start.p0i8(i64 40000, i8* nonnull %4) #7
  %5 = call nonnull align 8 dereferenceable(16) %"class.std::basic_istream"* @_ZNSirsERi(%"class.std::basic_istream"* nonnull align 8 dereferenceable(16) @_ZSt3cin, i32* nonnull align 4 dereferenceable(4) %1)
  %6 = load i32, i32* %1, align 4, !tbaa !5
  %7 = icmp slt i32 %6, 1
  br i1 %7, label %86, label %8

8:                                                ; preds = %0, %25
  %9 = phi i32 [ %26, %25 ], [ %6, %0 ]
  %10 = phi i64 [ %28, %25 ], [ 1, %0 ]
  %11 = icmp slt i32 %9, 1
  br i1 %11, label %25, label %17

12:                                               ; preds = %25
  %13 = icmp slt i32 %26, 1
  br i1 %13, label %86, label %14

14:                                               ; preds = %12
  %15 = add nuw i32 %26, 1
  %16 = zext i32 %15 to i64
  br label %30

17:                                               ; preds = %8, %17
  %18 = phi i64 [ %21, %17 ], [ 1, %8 ]
  %19 = getelementptr inbounds [100 x [100 x i32]], [100 x [100 x i32]]* %2, i64 0, i64 %10, i64 %18
  %20 = call nonnull align 8 dereferenceable(16) %"class.std::basic_istream"* @_ZNSirsERi(%"class.std::basic_istream"* nonnull align 8 dereferenceable(16) @_ZSt3cin, i32* nonnull align 4 dereferenceable(4) %19)
  %21 = add nuw nsw i64 %18, 1
  %22 = load i32, i32* %1, align 4, !tbaa !5
  %23 = sext i32 %22 to i64
  %24 = icmp slt i64 %18, %23
  br i1 %24, label %17, label %25, !llvm.loop !9

25:                                               ; preds = %17, %8
  %26 = phi i32 [ %9, %8 ], [ %22, %17 ]
  %27 = sext i32 %26 to i64
  %28 = add nuw nsw i64 %10, 1
  %29 = icmp slt i64 %10, %27
  br i1 %29, label %8, label %12, !llvm.loop !11

30:                                               ; preds = %14, %81
  %31 = phi i64 [ 1, %14 ], [ %84, %81 ]
  %32 = phi i32 [ 0, %14 ], [ %83, %81 ]
  %33 = phi i32 [ 0, %14 ], [ %82, %81 ]
  %34 = icmp eq i32 %33, 0
  br i1 %34, label %35, label %43

35:                                               ; preds = %30, %40
  %36 = phi i64 [ %41, %40 ], [ 1, %30 ]
  %37 = getelementptr inbounds [100 x [100 x i32]], [100 x [100 x i32]]* %2, i64 0, i64 %31, i64 %36
  %38 = load i32, i32* %37, align 4, !tbaa !5
  %39 = icmp eq i32 %38, 0
  br i1 %39, label %47, label %40

40:                                               ; preds = %35
  %41 = add nuw nsw i64 %36, 1
  %42 = icmp eq i64 %41, %16
  br i1 %42, label %81, label %35, !llvm.loop !13

43:                                               ; preds = %30
  %44 = getelementptr inbounds [100 x [100 x i32]], [100 x [100 x i32]]* %2, i64 0, i64 %31, i64 1
  %45 = load i32, i32* %44, align 4, !tbaa !5
  %46 = icmp eq i32 %45, 0
  br i1 %46, label %49, label %81

47:                                               ; preds = %35
  %48 = trunc i64 %36 to i32
  br label %49

49:                                               ; preds = %47, %43
  %50 = phi i32 [ 1, %43 ], [ %48, %47 ]
  %51 = zext i32 %50 to i64
  %52 = add nuw nsw i32 %50, 1
  %53 = zext i32 %52 to i64
  %54 = getelementptr inbounds [100 x [100 x i32]], [100 x [100 x i32]]* %2, i64 0, i64 %31, i64 %53
  %55 = load i32, i32* %54, align 4, !tbaa !5
  %56 = icmp eq i32 %55, 0
  br i1 %56, label %63, label %57

57:                                               ; preds = %63, %49
  %58 = phi i32 [ %33, %49 ], [ %66, %63 ]
  %59 = add nuw nsw i64 %31, 1
  %60 = getelementptr inbounds [100 x [100 x i32]], [100 x [100 x i32]]* %2, i64 0, i64 %59, i64 %51
  %61 = load i32, i32* %60, align 4, !tbaa !5
  %62 = icmp eq i32 %61, 0
  br i1 %62, label %72, label %81

63:                                               ; preds = %49, %63
  %64 = phi i64 [ %67, %63 ], [ 1, %49 ]
  %65 = phi i32 [ %66, %63 ], [ %33, %49 ]
  %66 = add nsw i32 %65, 1
  %67 = add nuw i64 %64, 1
  %68 = add nuw nsw i64 %67, %51
  %69 = getelementptr inbounds [100 x [100 x i32]], [100 x [100 x i32]]* %2, i64 0, i64 %31, i64 %68
  %70 = load i32, i32* %69, align 4, !tbaa !5
  %71 = icmp eq i32 %70, 0
  br i1 %71, label %63, label %57, !llvm.loop !14

72:                                               ; preds = %57, %72
  %73 = phi i64 [ %76, %72 ], [ 1, %57 ]
  %74 = phi i32 [ %75, %72 ], [ %32, %57 ]
  %75 = add nsw i32 %74, 1
  %76 = add nuw i64 %73, 1
  %77 = add nuw nsw i64 %76, %31
  %78 = getelementptr inbounds [100 x [100 x i32]], [100 x [100 x i32]]* %2, i64 0, i64 %77, i64 %51
  %79 = load i32, i32* %78, align 4, !tbaa !5
  %80 = icmp eq i32 %79, 0
  br i1 %80, label %72, label %81, !llvm.loop !15

81:                                               ; preds = %40, %72, %43, %57
  %82 = phi i32 [ %58, %57 ], [ %33, %43 ], [ %58, %72 ], [ 0, %40 ]
  %83 = phi i32 [ %32, %57 ], [ %32, %43 ], [ %75, %72 ], [ %32, %40 ]
  %84 = add nuw nsw i64 %31, 1
  %85 = icmp eq i64 %84, %16
  br i1 %85, label %86, label %30, !llvm.loop !16

86:                                               ; preds = %81, %0, %12
  %87 = phi i32 [ 0, %12 ], [ 0, %0 ], [ %82, %81 ]
  %88 = phi i32 [ 0, %12 ], [ 0, %0 ], [ %83, %81 ]
  %89 = add nsw i32 %87, -1
  %90 = add nsw i32 %88, -1
  %91 = mul nsw i32 %90, %89
  %92 = call nonnull align 8 dereferenceable(8) %"class.std::basic_ostream"* @_ZNSolsEi(%"class.std::basic_ostream"* nonnull align 8 dereferenceable(8) @_ZSt4cout, i32 %91)
  %93 = bitcast %"class.std::basic_ostream"* %92 to i8**
  %94 = load i8*, i8** %93, align 8, !tbaa !17
  %95 = getelementptr i8, i8* %94, i64 -24
  %96 = bitcast i8* %95 to i64*
  %97 = load i64, i64* %96, align 8
  %98 = bitcast %"class.std::basic_ostream"* %92 to i8*
  %99 = add nsw i64 %97, 240
  %100 = getelementptr inbounds i8, i8* %98, i64 %99
  %101 = bitcast i8* %100 to %"class.std::ctype"**
  %102 = load %"class.std::ctype"*, %"class.std::ctype"** %101, align 8, !tbaa !19
  %103 = icmp eq %"class.std::ctype"* %102, null
  br i1 %103, label %104, label %105

104:                                              ; preds = %86
  call void @_ZSt16__throw_bad_castv() #8
  unreachable

105:                                              ; preds = %86
  %106 = getelementptr inbounds %"class.std::ctype", %"class.std::ctype"* %102, i64 0, i32 8
  %107 = load i8, i8* %106, align 8, !tbaa !23
  %108 = icmp eq i8 %107, 0
  br i1 %108, label %112, label %109

109:                                              ; preds = %105
  %110 = getelementptr inbounds %"class.std::ctype", %"class.std::ctype"* %102, i64 0, i32 9, i64 10
  %111 = load i8, i8* %110, align 1, !tbaa !25
  br label %118

112:                                              ; preds = %105
  call void @_ZNKSt5ctypeIcE13_M_widen_initEv(%"class.std::ctype"* nonnull align 8 dereferenceable(570) %102)
  %113 = bitcast %"class.std::ctype"* %102 to i8 (%"class.std::ctype"*, i8)***
  %114 = load i8 (%"class.std::ctype"*, i8)**, i8 (%"class.std::ctype"*, i8)*** %113, align 8, !tbaa !17
  %115 = getelementptr inbounds i8 (%"class.std::ctype"*, i8)*, i8 (%"class.std::ctype"*, i8)** %114, i64 6
  %116 = load i8 (%"class.std::ctype"*, i8)*, i8 (%"class.std::ctype"*, i8)** %115, align 8
  %117 = call signext i8 %116(%"class.std::ctype"* nonnull align 8 dereferenceable(570) %102, i8 signext 10)
  br label %118

118:                                              ; preds = %109, %112
  %119 = phi i8 [ %111, %109 ], [ %117, %112 ]
  %120 = call nonnull align 8 dereferenceable(8) %"class.std::basic_ostream"* @_ZNSo3putEc(%"class.std::basic_ostream"* nonnull align 8 dereferenceable(8) %92, i8 signext %119)
  %121 = call nonnull align 8 dereferenceable(8) %"class.std::basic_ostream"* @_ZNSo5flushEv(%"class.std::basic_ostream"* nonnull align 8 dereferenceable(8) %120)
  call void @llvm.lifetime.end.p0i8(i64 40000, i8* nonnull %4) #7
  call void @llvm.lifetime.end.p0i8(i64 4, i8* nonnull %3) #7
  ret i32 0
}

; Function Attrs: argmemonly mustprogress nofree nosync nounwind willreturn
declare void @llvm.lifetime.start.p0i8(i64 immarg, i8* nocapture) #4

declare nonnull align 8 dereferenceable(16) %"class.std::basic_istream"* @_ZNSirsERi(%"class.std::basic_istream"* nonnull align 8 dereferenceable(16), i32* nonnull align 4 dereferenceable(4)) local_unnamed_addr #0

declare nonnull align 8 dereferenceable(8) %"class.std::basic_ostream"* @_ZNSolsEi(%"class.std::basic_ostream"* nonnull align 8 dereferenceable(8), i32) local_unnamed_addr #0

; Function Attrs: argmemonly mustprogress nofree nosync nounwind willreturn
declare void @llvm.lifetime.end.p0i8(i64 immarg, i8* nocapture) #4

declare nonnull align 8 dereferenceable(8) %"class.std::basic_ostream"* @_ZNSo3putEc(%"class.std::basic_ostream"* nonnull align 8 dereferenceable(8), i8 signext) local_unnamed_addr #0

declare nonnull align 8 dereferenceable(8) %"class.std::basic_ostream"* @_ZNSo5flushEv(%"class.std::basic_ostream"* nonnull align 8 dereferenceable(8)) local_unnamed_addr #0

; Function Attrs: noreturn
declare void @_ZSt16__throw_bad_castv() local_unnamed_addr #5

declare void @_ZNKSt5ctypeIcE13_M_widen_initEv(%"class.std::ctype"* nonnull align 8 dereferenceable(570)) local_unnamed_addr #0

; Function Attrs: sspstrong uwtable
define internal void @_GLOBAL__sub_I_2337.cpp() #6 section ".text.startup" {
  tail call void @_ZNSt8ios_base4InitC1Ev(%"class.std::ios_base::Init"* nonnull align 1 dereferenceable(1) @_ZStL8__ioinit)
  %1 = tail call i32 @__cxa_atexit(void (i8*)* bitcast (void (%"class.std::ios_base::Init"*)* @_ZNSt8ios_base4InitD1Ev to void (i8*)*), i8* getelementptr inbounds (%"class.std::ios_base::Init", %"class.std::ios_base::Init"* @_ZStL8__ioinit, i64 0, i32 0), i8* nonnull @__dso_handle) #7
  ret void
}


!llvm.module.flags = !{!0, !1, !2, !3}
!llvm.ident = !{!4}

!0 = !{i32 1, !"wchar_size", i32 4}
!1 = !{i32 7, !"PIC Level", i32 2}
!2 = !{i32 7, !"PIE Level", i32 2}
!3 = !{i32 7, !"uwtable", i32 1}
!4 = !{!"clang version 13.0.0"}
!5 = !{!6, !6, i64 0}
!6 = !{!"int", !7, i64 0}
!7 = !{!"omnipotent char", !8, i64 0}
!8 = !{!"Simple C++ TBAA"}
!9 = distinct !{!9, !10}
!10 = !{!"llvm.loop.mustprogress"}
!11 = distinct !{!11, !10, !12}
!12 = !{!"llvm.loop.unswitch.partial.disable"}
!13 = distinct !{!13, !10}
!14 = distinct !{!14, !10}
!15 = distinct !{!15, !10}
!16 = distinct !{!16, !10}
!17 = !{!18, !18, i64 0}
!18 = !{!"vtable pointer", !8, i64 0}
!19 = !{!20, !21, i64 240}
!20 = !{!"_ZTSSt9basic_iosIcSt11char_traitsIcEE", !21, i64 216, !7, i64 224, !22, i64 225, !21, i64 232, !21, i64 240, !21, i64 248, !21, i64 256}
!21 = !{!"any pointer", !7, i64 0}
!22 = !{!"bool", !7, i64 0}
!23 = !{!24, !7, i64 56}
!24 = !{!"_ZTSSt5ctypeIcE", !21, i64 16, !22, i64 24, !21, i64 32, !21, i64 40, !21, i64 48, !7, i64 56, !7, i64 57, !7, i64 313, !7, i64 569}
!25 = !{!7, !7, i64 0}
